target datalayout = "e-m:e-p270:32:32-p271:32:32-p272:64:64-i64:64-i128:128-f80:128-n8:16:32:64-S128"
target triple = "x86_64-pc-linux-gnu"

%class.frame = type { %union.anon, ptr, ptr, ptr, i32, i8, %union.anon.0, %union.anon.1 }
%union.anon = type { ptr }
%union.anon.0 = type { ptr }
%union.anon.1 = type { ptr }
%class.JavaFrameAnchor = type { ptr, ptr, ptr }
%class.CodeBlob = type <{ ptr, ptr, ptr, i32, i32, i32, i32, i32, i32, i16, i16, i8, i8, [2 x i8] }>
%class.nmethod = type <{ %class.CodeBlob.base, [2 x i8], i64, i64, ptr, %union.anon.5, ptr, ptr, ptr, ptr, ptr, ptr, ptr, i16, i16, i32, i32, i32, i32, i32, i32, i32, i16, i16, i16, i16, i16, i16, i32, i32, i32, i32, i32, i8, i8, i8, i8, i8, i8, [2 x i8] }>
%class.CodeBlob.base = type <{ ptr, ptr, ptr, i32, i32, i32, i32, i32, i32, i16, i16, i8, i8 }>
%union.anon.5 = type { ptr }

@_ZN13SharedRuntime11_deopt_blobE = external global ptr, align 8

; Function Attrs: mustprogress nounwind uwtable
define linkonce_odr hidden noundef ptr @_ZNK8CodeBlob12header_beginEv(ptr noundef nonnull align 8 dereferenceable(54) %0) #1 comdat align 2 {
  %2 = alloca ptr, align 8
  store ptr %0, ptr %2, align 8
  %3 = load ptr, ptr %2, align 8
  ret ptr %3
}

; Function Attrs: mustprogress nounwind uwtable
define linkonce_odr hidden noundef ptr @_ZNK7nmethod22deopt_mh_handler_beginEv(ptr noundef nonnull align 8 dereferenceable(214) %0) #1 comdat align 2 {
  %2 = alloca ptr, align 8
  store ptr %0, ptr %2, align 8
  %3 = load ptr, ptr %2, align 8
  %4 = call noundef ptr @_ZNK8CodeBlob12header_beginEv(ptr noundef nonnull align 8 dereferenceable(54) %3)
  %5 = getelementptr inbounds %class.nmethod, ptr %3, i32 0, i32 21
  %6 = load i32, ptr %5, align 4
  %7 = sext i32 %6 to i64
  %8 = getelementptr inbounds i8, ptr %4, i64 %7
  ret ptr %8
}

; Function Attrs: mustprogress nounwind uwtable
define linkonce_odr hidden noundef i32 @_ZN10NativeCall9byte_sizeEv() #1 comdat align 2 {
  ret i32 5
}

; Function Attrs: mustprogress nounwind uwtable
define linkonce_odr hidden noundef zeroext i1 @_ZNK7nmethod20is_compiled_by_jvmciEv(ptr noundef nonnull align 8 dereferenceable(214) %0) #1 comdat align 2 {
  %2 = alloca ptr, align 8
  store ptr %0, ptr %2, align 8
  %3 = load ptr, ptr %2, align 8
  %4 = getelementptr inbounds %class.nmethod, ptr %3, i32 0, i32 34
  %5 = load i8, ptr %4, align 1
  %6 = zext i8 %5 to i32
  %7 = icmp eq i32 %6, 3
  ret i1 %7
}

; Function Attrs: mustprogress nounwind uwtable
define linkonce_odr hidden noundef ptr @_ZNK7nmethod19deopt_handler_beginEv(ptr noundef nonnull align 8 dereferenceable(214) %0) #1 comdat align 2 {
  %2 = alloca ptr, align 8
  store ptr %0, ptr %2, align 8
  %3 = load ptr, ptr %2, align 8
  %4 = call noundef ptr @_ZNK8CodeBlob12header_beginEv(ptr noundef nonnull align 8 dereferenceable(54) %3)
  %5 = getelementptr inbounds %class.nmethod, ptr %3, i32 0, i32 20
  %6 = load i32, ptr %5, align 8
  %7 = sext i32 %6 to i64
  %8 = getelementptr inbounds i8, ptr %4, i64 %7
  ret ptr %8
}

; Function Attrs: mustprogress nounwind uwtable
define linkonce_odr hidden noundef zeroext i1 @_ZN7nmethod17is_deopt_mh_entryEPh(ptr noundef nonnull align 8 dereferenceable(214) %0, ptr noundef %1) #1 comdat align 2 {
  %3 = alloca ptr, align 8
  %4 = alloca ptr, align 8
  store ptr %0, ptr %3, align 8
  store ptr %1, ptr %4, align 8
  %5 = load ptr, ptr %3, align 8
  %6 = load ptr, ptr %4, align 8
  %7 = call noundef ptr @_ZNK7nmethod22deopt_mh_handler_beginEv(ptr noundef nonnull align 8 dereferenceable(214) %5)
  %8 = icmp eq ptr %6, %7
  br i1 %8, label %20, label %9

9:                                                ; preds = %2
  %10 = call noundef zeroext i1 @_ZNK7nmethod20is_compiled_by_jvmciEv(ptr noundef nonnull align 8 dereferenceable(214) %5)
  br i1 %10, label %11, label %18

11:                                               ; preds = %9
  %12 = load ptr, ptr %4, align 8
  %13 = call noundef ptr @_ZNK7nmethod22deopt_mh_handler_beginEv(ptr noundef nonnull align 8 dereferenceable(214) %5)
  %14 = call noundef i32 @_ZN10NativeCall9byte_sizeEv()
  %15 = sext i32 %14 to i64
  %16 = getelementptr inbounds i8, ptr %13, i64 %15
  %17 = icmp eq ptr %12, %16
  br label %18

18:                                               ; preds = %11, %9
  %19 = phi i1 [ false, %9 ], [ %17, %11 ]
  br label %20

20:                                               ; preds = %18, %2
  %21 = phi i1 [ true, %2 ], [ %19, %18 ]
  ret i1 %21
}

; Function Attrs: mustprogress nounwind uwtable
define linkonce_odr hidden noundef zeroext i1 @_ZN7nmethod14is_deopt_entryEPh(ptr noundef nonnull align 8 dereferenceable(214) %0, ptr noundef %1) #1 comdat align 2 {
  %3 = alloca ptr, align 8
  %4 = alloca ptr, align 8
  store ptr %0, ptr %3, align 8
  store ptr %1, ptr %4, align 8
  %5 = load ptr, ptr %3, align 8
  %6 = load ptr, ptr %4, align 8
  %7 = call noundef ptr @_ZNK7nmethod19deopt_handler_beginEv(ptr noundef nonnull align 8 dereferenceable(214) %5)
  %8 = icmp eq ptr %6, %7
  br i1 %8, label %20, label %9

9:                                                ; preds = %2
  %10 = call noundef zeroext i1 @_ZNK7nmethod20is_compiled_by_jvmciEv(ptr noundef nonnull align 8 dereferenceable(214) %5)
  br i1 %10, label %11, label %18

11:                                               ; preds = %9
  %12 = load ptr, ptr %4, align 8
  %13 = call noundef ptr @_ZNK7nmethod19deopt_handler_beginEv(ptr noundef nonnull align 8 dereferenceable(214) %5)
  %14 = call noundef i32 @_ZN10NativeCall9byte_sizeEv()
  %15 = sext i32 %14 to i64
  %16 = getelementptr inbounds i8, ptr %13, i64 %15
  %17 = icmp eq ptr %12, %16
  br label %18

18:                                               ; preds = %11, %9
  %19 = phi i1 [ false, %9 ], [ %17, %11 ]
  br label %20

20:                                               ; preds = %18, %2
  %21 = phi i1 [ true, %2 ], [ %19, %18 ]
  ret i1 %21
}

; Function Attrs: mustprogress nounwind uwtable
define linkonce_odr hidden noundef zeroext i1 @_ZNK8CodeBlob10is_nmethodEv(ptr noundef nonnull align 8 dereferenceable(54) %0) #1 comdat align 2 {
  %2 = alloca ptr, align 8
  store ptr %0, ptr %2, align 8
  %3 = load ptr, ptr %2, align 8
  %4 = getelementptr inbounds %class.CodeBlob, ptr %3, i32 0, i32 11
  %5 = load i8, ptr %4, align 4
  %6 = icmp eq i8 %5, 1
  ret i1 %6
}

; Function Attrs: mustprogress nounwind uwtable
define linkonce_odr hidden noundef ptr @_ZN7nmethod15get_original_pcEPK5frame(ptr noundef nonnull align 8 dereferenceable(214) %0, ptr noundef %1) #1 comdat align 2 {
  %3 = alloca ptr, align 8
  %4 = alloca ptr, align 8
  store ptr %0, ptr %3, align 8
  store ptr %1, ptr %4, align 8
  %5 = load ptr, ptr %3, align 8
  %6 = load ptr, ptr %4, align 8
  %7 = call noundef ptr @_ZN7nmethod12orig_pc_addrEPK5frame(ptr noundef nonnull align 8 dereferenceable(214) %5, ptr noundef %6)
  %8 = load ptr, ptr %7, align 8
  ret ptr %8
}

; Function Attrs: mustprogress nounwind uwtable
define linkonce_odr hidden noundef zeroext i1 @_ZN7nmethod11is_deopt_pcEPh(ptr noundef nonnull align 8 dereferenceable(214) %0, ptr noundef %1) #1 comdat align 2 {
  %3 = alloca ptr, align 8
  %4 = alloca ptr, align 8
  store ptr %0, ptr %3, align 8
  store ptr %1, ptr %4, align 8
  %5 = load ptr, ptr %3, align 8
  %6 = load ptr, ptr %4, align 8
  %7 = call noundef zeroext i1 @_ZN7nmethod14is_deopt_entryEPh(ptr noundef nonnull align 8 dereferenceable(214) %5, ptr noundef %6)
  br i1 %7, label %11, label %8

8:                                                ; preds = %2
  %9 = load ptr, ptr %4, align 8
  %10 = call noundef zeroext i1 @_ZN7nmethod17is_deopt_mh_entryEPh(ptr noundef nonnull align 8 dereferenceable(214) %5, ptr noundef %9)
  br label %11

11:                                               ; preds = %8, %2
  %12 = phi i1 [ true, %2 ], [ %10, %8 ]
  ret i1 %12
}

; Function Attrs: mustprogress nounwind uwtable
define linkonce_odr hidden noundef ptr @_ZN8CodeBlob18as_nmethod_or_nullEv(ptr noundef nonnull align 8 dereferenceable(54) %0) #1 comdat align 2 {
  %2 = alloca ptr, align 8
  store ptr %0, ptr %2, align 8
  %3 = load ptr, ptr %2, align 8
  %4 = call noundef zeroext i1 @_ZNK8CodeBlob10is_nmethodEv(ptr noundef nonnull align 8 dereferenceable(54) %3)
  br i1 %4, label %5, label %6

5:                                                ; preds = %1
  br label %7

6:                                                ; preds = %1
  br label %7

7:                                                ; preds = %6, %5
  %8 = phi ptr [ %3, %5 ], [ null, %6 ]
  ret ptr %8
}

; Function Attrs: mustprogress nounwind uwtable
define linkonce_odr hidden noundef ptr @_ZN13SharedRuntime10deopt_blobEv() #1 comdat align 2 {
  %1 = load ptr, ptr @_ZN13SharedRuntime11_deopt_blobE, align 8
  ret ptr %1
}

; Function Attrs: mustprogress nounwind uwtable
define linkonce_odr hidden noundef ptr @_ZNK5frame21get_deopt_original_pcEv(ptr noundef nonnull align 8 dereferenceable(56) %0) #1 comdat align 2 {
  %2 = alloca ptr, align 8
  %3 = alloca ptr, align 8
  %4 = alloca ptr, align 8
  store ptr %0, ptr %3, align 8
  %5 = load ptr, ptr %3, align 8
  %6 = getelementptr inbounds %class.frame, ptr %5, i32 0, i32 2
  %7 = load ptr, ptr %6, align 8
  %8 = icmp eq ptr %7, null
  br i1 %8, label %9, label %10

9:                                                ; preds = %1
  store ptr null, ptr %2, align 8
  br label %25

10:                                               ; preds = %1
  %11 = getelementptr inbounds %class.frame, ptr %5, i32 0, i32 2
  %12 = load ptr, ptr %11, align 8
  %13 = call noundef ptr @_ZN8CodeBlob18as_nmethod_or_nullEv(ptr noundef nonnull align 8 dereferenceable(54) %12)
  store ptr %13, ptr %4, align 8
  %14 = load ptr, ptr %4, align 8
  %15 = icmp ne ptr %14, null
  br i1 %15, label %16, label %24

16:                                               ; preds = %10
  %17 = load ptr, ptr %4, align 8
  %18 = getelementptr inbounds %class.frame, ptr %5, i32 0, i32 1
  %19 = load ptr, ptr %18, align 8
  %20 = call noundef zeroext i1 @_ZN7nmethod11is_deopt_pcEPh(ptr noundef nonnull align 8 dereferenceable(214) %17, ptr noundef %19)
  br i1 %20, label %21, label %24

21:                                               ; preds = %16
  %22 = load ptr, ptr %4, align 8
  %23 = call noundef ptr @_ZN7nmethod15get_original_pcEPK5frame(ptr noundef nonnull align 8 dereferenceable(214) %22, ptr noundef %5)
  store ptr %23, ptr %2, align 8
  br label %25

24:                                               ; preds = %16, %10
  store ptr null, ptr %2, align 8
  br label %25

25:                                               ; preds = %24, %21, %9
  %26 = load ptr, ptr %2, align 8
  ret ptr %26
}

; Function Attrs: mustprogress nounwind uwtable
define linkonce_odr hidden void @_ZN5frame20adjust_unextended_spEv(ptr noundef nonnull align 8 dereferenceable(56) %0) #1 comdat align 2 {
  %2 = alloca ptr, align 8
  store ptr %0, ptr %2, align 8
  ret void
}

; Function Attrs: mustprogress nounwind uwtable
define linkonce_odr hidden void @_ZN5frame5setupEPh(ptr noundef nonnull align 8 dereferenceable(56) %0, ptr noundef %1) #1 comdat align 2 {
  %3 = alloca ptr, align 8
  %4 = alloca ptr, align 8
  %5 = alloca ptr, align 8
  store ptr %0, ptr %3, align 8
  store ptr %1, ptr %4, align 8
  %6 = load ptr, ptr %3, align 8
  call void @_ZN5frame20adjust_unextended_spEv(ptr noundef nonnull align 8 dereferenceable(56) %6)
  %7 = call noundef ptr @_ZNK5frame21get_deopt_original_pcEv(ptr noundef nonnull align 8 dereferenceable(56) %6)
  store ptr %7, ptr %5, align 8
  %8 = load ptr, ptr %5, align 8
  %9 = icmp ne ptr %8, null
  br i1 %9, label %10, label %14

10:                                               ; preds = %2
  %11 = load ptr, ptr %5, align 8
  %12 = getelementptr inbounds %class.frame, ptr %6, i32 0, i32 1
  store ptr %11, ptr %12, align 8
  %13 = getelementptr inbounds %class.frame, ptr %6, i32 0, i32 4
  store i32 1, ptr %13, align 8
  br label %24

14:                                               ; preds = %2
  %15 = getelementptr inbounds %class.frame, ptr %6, i32 0, i32 2
  %16 = load ptr, ptr %15, align 8
  %17 = call noundef ptr @_ZN13SharedRuntime10deopt_blobEv()
  %18 = icmp eq ptr %16, %17
  br i1 %18, label %19, label %21

19:                                               ; preds = %14
  %20 = getelementptr inbounds %class.frame, ptr %6, i32 0, i32 4
  store i32 1, ptr %20, align 8
  br label %23

21:                                               ; preds = %14
  %22 = getelementptr inbounds %class.frame, ptr %6, i32 0, i32 4
  store i32 0, ptr %22, align 8
  br label %23

23:                                               ; preds = %21, %19
  br label %24

24:                                               ; preds = %23, %10
  ret void
}

; Function Attrs: mustprogress nounwind uwtable
define linkonce_odr hidden void @_ZN5frame4initEPlS0_Ph(ptr noundef nonnull align 8 dereferenceable(56) %0, ptr noundef %1, ptr noundef %2, ptr noundef %3) #1 comdat align 2 {
  %5 = alloca ptr, align 8
  %6 = alloca ptr, align 8
  %7 = alloca ptr, align 8
  %8 = alloca ptr, align 8
  store ptr %0, ptr %5, align 8
  store ptr %1, ptr %6, align 8
  store ptr %2, ptr %7, align 8
  store ptr %3, ptr %8, align 8
  %9 = load ptr, ptr %5, align 8
  %10 = load ptr, ptr %6, align 8
  %11 = getelementptr inbounds %class.frame, ptr %9, i32 0, i32 0
  store ptr %10, ptr %11, align 8
  %12 = load ptr, ptr %6, align 8
  %13 = getelementptr inbounds %class.frame, ptr %9, i32 0, i32 7
  store ptr %12, ptr %13, align 8
  %14 = load ptr, ptr %7, align 8
  %15 = getelementptr inbounds %class.frame, ptr %9, i32 0, i32 6
  store ptr %14, ptr %15, align 8
  %16 = load ptr, ptr %8, align 8
  %17 = getelementptr inbounds %class.frame, ptr %9, i32 0, i32 1
  store ptr %16, ptr %17, align 8
  %18 = getelementptr inbounds %class.frame, ptr %9, i32 0, i32 3
  store ptr null, ptr %18, align 8
  %19 = getelementptr inbounds %class.frame, ptr %9, i32 0, i32 5
  store i8 0, ptr %19, align 4
  %20 = load ptr, ptr %8, align 8
  %21 = call noundef ptr @_ZN9CodeCache9find_blobEPv(ptr noundef %20)
  %22 = getelementptr inbounds %class.frame, ptr %9, i32 0, i32 2
  store ptr %21, ptr %22, align 8
  %23 = load ptr, ptr %8, align 8
  call void @_ZN5frame5setupEPh(ptr noundef nonnull align 8 dereferenceable(56) %9, ptr noundef %23)
  ret void
}

; Function Attrs: mustprogress nounwind uwtable
define linkonce_odr hidden noundef zeroext i1 @_ZN15JavaFrameAnchor8walkableEv(ptr noundef nonnull align 8 dereferenceable(24) %0) #1 comdat align 2 {
  %2 = alloca ptr, align 8
  store ptr %0, ptr %2, align 8
  %3 = load ptr, ptr %2, align 8
  %4 = getelementptr inbounds %class.JavaFrameAnchor, ptr %3, i32 0, i32 0
  %5 = load volatile ptr, ptr %4, align 8
  %6 = icmp ne ptr %5, null
  br i1 %6, label %7, label %11

7:                                                ; preds = %1
  %8 = getelementptr inbounds %class.JavaFrameAnchor, ptr %3, i32 0, i32 1
  %9 = load volatile ptr, ptr %8, align 8
  %10 = icmp ne ptr %9, null
  br label %11

11:                                               ; preds = %7, %1
  %12 = phi i1 [ false, %1 ], [ %10, %7 ]
  ret i1 %12
}

; Function Attrs: mustprogress nounwind uwtable
define linkonce_odr hidden void @_ZN5frameC2EPlS0_Ph(ptr noundef nonnull align 8 dereferenceable(56) %0, ptr noundef %1, ptr noundef %2, ptr noundef %3) unnamed_addr #1 comdat align 2 {
  %5 = alloca ptr, align 8
  %6 = alloca ptr, align 8
  %7 = alloca ptr, align 8
  %8 = alloca ptr, align 8
  store ptr %0, ptr %5, align 8
  store ptr %1, ptr %6, align 8
  store ptr %2, ptr %7, align 8
  store ptr %3, ptr %8, align 8
  %9 = load ptr, ptr %5, align 8
  %10 = load ptr, ptr %6, align 8
  %11 = load ptr, ptr %7, align 8
  %12 = load ptr, ptr %8, align 8
  call void @_ZN5frame4initEPlS0_Ph(ptr noundef nonnull align 8 dereferenceable(56) %9, ptr noundef %10, ptr noundef %11, ptr noundef %12)
  ret void
}

; Function Attrs: mustprogress nounwind uwtable
define linkonce_odr hidden noundef ptr @_ZN15JavaFrameAnchor12last_Java_pcEv(ptr noundef nonnull align 8 dereferenceable(24) %0) #1 comdat align 2 {
  %2 = alloca ptr, align 8
  store ptr %0, ptr %2, align 8
  %3 = load ptr, ptr %2, align 8
  %4 = getelementptr inbounds %class.JavaFrameAnchor, ptr %3, i32 0, i32 1
  %5 = load volatile ptr, ptr %4, align 8
  ret ptr %5
}

; Function Attrs: mustprogress nounwind uwtable
define linkonce_odr hidden noundef ptr @_ZN15JavaFrameAnchor12last_Java_fpEv(ptr noundef nonnull align 8 dereferenceable(24) %0) #1 comdat align 2 {
  %2 = alloca ptr, align 8
  store ptr %0, ptr %2, align 8
  %3 = load ptr, ptr %2, align 8
  %4 = getelementptr inbounds %class.JavaFrameAnchor, ptr %3, i32 0, i32 2
  %5 = load volatile ptr, ptr %4, align 8
  ret ptr %5
}

; Function Attrs: mustprogress nounwind uwtable
define linkonce_odr hidden noundef ptr @_ZNK15JavaFrameAnchor12last_Java_spEv(ptr noundef nonnull align 8 dereferenceable(24) %0) #1 comdat align 2 {
  %2 = alloca ptr, align 8
  store ptr %0, ptr %2, align 8
  %3 = load ptr, ptr %2, align 8
  %4 = getelementptr inbounds %class.JavaFrameAnchor, ptr %3, i32 0, i32 0
  %5 = load volatile ptr, ptr %4, align 8
  ret ptr %5
}

; Function Attrs: mustprogress nounwind uwtable
define hidden void @_ZN15JavaFrameAnchor13make_walkableEv(ptr noundef nonnull align 8 dereferenceable(24) %0) #1 align 2 {
  %2 = alloca ptr, align 8
  store ptr %0, ptr %2, align 8
  %3 = load ptr, ptr %2, align 8
  %4 = call noundef ptr @_ZNK15JavaFrameAnchor12last_Java_spEv(ptr noundef nonnull align 8 dereferenceable(24) %3)
  %5 = icmp eq ptr %4, null
  br i1 %5, label %6, label %7

6:                                                ; preds = %1
  br label %17

7:                                                ; preds = %1
  %8 = call noundef zeroext i1 @_ZN15JavaFrameAnchor8walkableEv(ptr noundef nonnull align 8 dereferenceable(24) %3)
  br i1 %8, label %9, label %10

9:                                                ; preds = %7
  br label %17

10:                                               ; preds = %7
  %11 = getelementptr inbounds %class.JavaFrameAnchor, ptr %3, i32 0, i32 0
  %12 = load volatile ptr, ptr %11, align 8
  %13 = getelementptr inbounds i64, ptr %12, i64 -1
  %14 = load i64, ptr %13, align 8
  %15 = inttoptr i64 %14 to ptr
  %16 = getelementptr inbounds %class.JavaFrameAnchor, ptr %3, i32 0, i32 1
  store volatile ptr %15, ptr %16, align 8
  br label %17

17:                                               ; preds = %10, %9, %6
  ret void
}

; Function Attrs: mustprogress nounwind uwtable
define linkonce_odr hidden noundef ptr @_ZNK8CodeBlob14as_upcall_stubEv(ptr noundef nonnull align 8 dereferenceable(54) %0) #1 comdat align 2 {
  %2 = alloca ptr, align 8
  store ptr %0, ptr %2, align 8
  %3 = load ptr, ptr %2, align 8
  ret ptr %3
}

; Function Attrs: mustprogress nounwind uwtable
define hidden void @_ZNK5frame28sender_for_upcall_stub_frameEP11RegisterMap(ptr dead_on_unwind noalias writable sret(%class.frame) align 8 %0, ptr noundef nonnull align 8 dereferenceable(56) %1, ptr noundef %2) #1 align 2 {
  %4 = alloca ptr, align 8
  %5 = alloca ptr, align 8
  %6 = alloca ptr, align 8
  %7 = alloca ptr, align 8
  store ptr %1, ptr %4, align 8
  store ptr %2, ptr %5, align 8
  %8 = load ptr, ptr %4, align 8
  %9 = getelementptr inbounds %class.frame, ptr %8, i32 0, i32 2
  %10 = load ptr, ptr %9, align 8
  %11 = call noundef ptr @_ZNK8CodeBlob14as_upcall_stubEv(ptr noundef nonnull align 8 dereferenceable(54) %10)
  store ptr %11, ptr %6, align 8
  %12 = load ptr, ptr %6, align 8
  %13 = call noundef ptr @_ZNK10UpcallStub13jfa_for_frameERK5frame(ptr noundef nonnull align 8 dereferenceable(68) %12, ptr noundef nonnull align 8 dereferenceable(56) %8)
  store ptr %13, ptr %7, align 8
  %14 = load ptr, ptr %7, align 8
  call void @_ZN15JavaFrameAnchor13make_walkableEv(ptr noundef nonnull align 8 dereferenceable(24) %14)
  %15 = load ptr, ptr %5, align 8
  call void @_ZN11RegisterMap5clearEv(ptr noundef nonnull align 8 dereferenceable(4983) %15)
  %16 = load ptr, ptr %7, align 8
  %17 = call noundef ptr @_ZNK15JavaFrameAnchor12last_Java_spEv(ptr noundef nonnull align 8 dereferenceable(24) %16)
  %18 = load ptr, ptr %7, align 8
  %19 = call noundef ptr @_ZN15JavaFrameAnchor12last_Java_fpEv(ptr noundef nonnull align 8 dereferenceable(24) %18)
  %20 = load ptr, ptr %7, align 8
  %21 = call noundef ptr @_ZN15JavaFrameAnchor12last_Java_pcEv(ptr noundef nonnull align 8 dereferenceable(24) %20)
  call void @_ZN5frameC2EPlS0_Ph(ptr noundef nonnull align 8 dereferenceable(56) %0, ptr noundef %17, ptr noundef %19, ptr noundef %21)
  ret void
}