; Function Attrs: mustprogress nounwind uwtable
define hidden void @_ZNK5frame28sender_for_upcall_stub_frameEP11RegisterMap(ptr dead_on_unwind noalias writable sret(%class.frame) align 8 %0, ptr noundef nonnull align 8 dereferenceable(56) %1, ptr noundef %2) local_unnamed_addr #0 align 2 {
  %4 = getelementptr inbounds i8, ptr %1, i64 16
  %5 = load ptr, ptr %4, align 8
  %6 = tail call noundef ptr @_ZNK10UpcallStub13jfa_for_frameERK5frame(ptr noundef nonnull align 8 dereferenceable(68) %5, ptr noundef nonnull align 8 dereferenceable(56) %1) #8
  %7 = load volatile ptr, ptr %6, align 8
  %8 = icmp eq ptr %7, null
  br i1 %8, label %_ZN15JavaFrameAnchor13make_walkableEv.exit, label %9

9:                                                ; preds = %3
  %10 = load volatile ptr, ptr %6, align 8
  %.not.i.i = icmp eq ptr %10, null
  br i1 %.not.i.i, label %_ZN15JavaFrameAnchor8walkableEv.exit.thread.i, label %_ZN15JavaFrameAnchor8walkableEv.exit.i

_ZN15JavaFrameAnchor8walkableEv.exit.i:           ; preds = %9
  %11 = getelementptr inbounds i8, ptr %6, i64 8
  %12 = load volatile ptr, ptr %11, align 8
  %.not.i = icmp eq ptr %12, null
  br i1 %.not.i, label %_ZN15JavaFrameAnchor8walkableEv.exit.thread.i, label %_ZN15JavaFrameAnchor13make_walkableEv.exit

_ZN15JavaFrameAnchor8walkableEv.exit.thread.i:    ; preds = %_ZN15JavaFrameAnchor8walkableEv.exit.i, %9
  %13 = load volatile ptr, ptr %6, align 8
  %14 = getelementptr inbounds i8, ptr %13, i64 -8
  %15 = load i64, ptr %14, align 8
  %16 = inttoptr i64 %15 to ptr
  %17 = getelementptr inbounds i8, ptr %6, i64 8
  store volatile ptr %16, ptr %17, align 8
  br label %_ZN15JavaFrameAnchor13make_walkableEv.exit

_ZN15JavaFrameAnchor13make_walkableEv.exit:       ; preds = %3, %_ZN15JavaFrameAnchor8walkableEv.exit.i, %_ZN15JavaFrameAnchor8walkableEv.exit.thread.i
  tail call void @_ZN11RegisterMap5clearEv(ptr noundef nonnull align 8 dereferenceable(4983) %2) #8
  %18 = load volatile ptr, ptr %6, align 8
  %19 = getelementptr inbounds i8, ptr %6, i64 16
  %20 = load volatile ptr, ptr %19, align 8
  %21 = getelementptr inbounds i8, ptr %6, i64 8
  %22 = load volatile ptr, ptr %21, align 8
  store ptr %18, ptr %0, align 8
  %23 = getelementptr inbounds i8, ptr %0, i64 48
  store ptr %18, ptr %23, align 8
  %24 = getelementptr inbounds i8, ptr %0, i64 40
  store ptr %20, ptr %24, align 8
  %25 = getelementptr inbounds i8, ptr %0, i64 8
  store ptr %22, ptr %25, align 8
  %26 = getelementptr inbounds i8, ptr %0, i64 24
  store ptr null, ptr %26, align 8
  %27 = getelementptr inbounds i8, ptr %0, i64 36
  store i8 0, ptr %27, align 4
  %28 = tail call noundef ptr @_ZN9CodeCache9find_blobEPv(ptr noundef %22) #8
  %29 = getelementptr inbounds i8, ptr %0, i64 16
  store ptr %28, ptr %29, align 8
  %30 = icmp eq ptr %28, null
  br i1 %30, label %_ZNK5frame21get_deopt_original_pcEv.exit.thread.i.i.i, label %31

31:                                               ; preds = %_ZN15JavaFrameAnchor13make_walkableEv.exit
  %32 = getelementptr inbounds i8, ptr %28, i64 52
  %33 = load i8, ptr %32, align 4
  %.not.i.i.i.i = icmp eq i8 %33, 1
  br i1 %.not.i.i.i.i, label %34, label %_ZNK5frame21get_deopt_original_pcEv.exit.thread.i.i.i

34:                                               ; preds = %31
  %35 = getelementptr inbounds i8, ptr %28, i64 168
  %36 = load i32, ptr %35, align 8
  %37 = sext i32 %36 to i64
  %38 = getelementptr inbounds i8, ptr %28, i64 %37
  %39 = icmp eq ptr %38, %22
  br i1 %39, label %_ZNK5frame21get_deopt_original_pcEv.exit.i.i.i, label %40

40:                                               ; preds = %34
  %41 = getelementptr inbounds i8, ptr %28, i64 209
  %42 = load i8, ptr %41, align 1
  %43 = icmp eq i8 %42, 3
  %44 = getelementptr inbounds i8, ptr %38, i64 5
  %45 = icmp eq ptr %44, %22
  %or.cond.i.i.i.i.i = select i1 %43, i1 %45, i1 false
  br i1 %or.cond.i.i.i.i.i, label %_ZNK5frame21get_deopt_original_pcEv.exit.i.i.i, label %_ZN7nmethod14is_deopt_entryEPh.exit.thread3.i.i.i.i.i

_ZN7nmethod14is_deopt_entryEPh.exit.thread3.i.i.i.i.i: ; preds = %40
  %46 = getelementptr inbounds i8, ptr %28, i64 172
  %47 = load i32, ptr %46, align 4
  %48 = sext i32 %47 to i64
  %49 = getelementptr inbounds i8, ptr %28, i64 %48
  %50 = icmp ne ptr %49, %22
  %brmerge.i.not.i.i.i.i = and i1 %43, %50
  br i1 %brmerge.i.not.i.i.i.i, label %51, label %_ZN7nmethod11is_deopt_pcEPh.exit.i.i.i.i

51:                                               ; preds = %_ZN7nmethod14is_deopt_entryEPh.exit.thread3.i.i.i.i.i
  %52 = getelementptr inbounds i8, ptr %49, i64 5
  %53 = icmp eq ptr %52, %22
  br i1 %53, label %_ZNK5frame21get_deopt_original_pcEv.exit.i.i.i, label %_ZNK5frame21get_deopt_original_pcEv.exit.thread.i.i.i

_ZN7nmethod11is_deopt_pcEPh.exit.i.i.i.i:         ; preds = %_ZN7nmethod14is_deopt_entryEPh.exit.thread3.i.i.i.i.i
  br i1 %50, label %_ZNK5frame21get_deopt_original_pcEv.exit.thread.i.i.i, label %_ZNK5frame21get_deopt_original_pcEv.exit.i.i.i

_ZNK5frame21get_deopt_original_pcEv.exit.i.i.i:   ; preds = %_ZN7nmethod11is_deopt_pcEPh.exit.i.i.i.i, %51, %40, %34
  %54 = tail call noundef ptr @_ZN7nmethod12orig_pc_addrEPK5frame(ptr noundef nonnull align 8 dereferenceable(214) %28, ptr noundef nonnull %0) #8
  %55 = load ptr, ptr %54, align 8
  %.not.i.i.i = icmp eq ptr %55, null
  br i1 %.not.i.i.i, label %_ZNK5frame21get_deopt_original_pcEv.exit._ZNK5frame21get_deopt_original_pcEv.exit.thread_crit_edge.i.i.i, label %56

_ZNK5frame21get_deopt_original_pcEv.exit._ZNK5frame21get_deopt_original_pcEv.exit.thread_crit_edge.i.i.i: ; preds = %_ZNK5frame21get_deopt_original_pcEv.exit.i.i.i
  %.pre.i.i.i = load ptr, ptr %29, align 8
  br label %_ZNK5frame21get_deopt_original_pcEv.exit.thread.i.i.i

56:                                               ; preds = %_ZNK5frame21get_deopt_original_pcEv.exit.i.i.i
  store ptr %55, ptr %25, align 8
  %57 = getelementptr inbounds i8, ptr %0, i64 32
  store i32 1, ptr %57, align 8
  br label %_ZN5frameC2EPlS0_Ph.exit

_ZNK5frame21get_deopt_original_pcEv.exit.thread.i.i.i: ; preds = %_ZNK5frame21get_deopt_original_pcEv.exit._ZNK5frame21get_deopt_original_pcEv.exit.thread_crit_edge.i.i.i, %_ZN7nmethod11is_deopt_pcEPh.exit.i.i.i.i, %51, %31, %_ZN15JavaFrameAnchor13make_walkableEv.exit
  %58 = phi ptr [ %.pre.i.i.i, %_ZNK5frame21get_deopt_original_pcEv.exit._ZNK5frame21get_deopt_original_pcEv.exit.thread_crit_edge.i.i.i ], [ %28, %51 ], [ %28, %31 ], [ %28, %_ZN7nmethod11is_deopt_pcEPh.exit.i.i.i.i ], [ null, %_ZN15JavaFrameAnchor13make_walkableEv.exit ]
  %59 = load ptr, ptr @_ZN13SharedRuntime11_deopt_blobE, align 8
  %60 = icmp eq ptr %58, %59
  %61 = getelementptr inbounds i8, ptr %0, i64 32
  br i1 %60, label %62, label %63

62:                                               ; preds = %_ZNK5frame21get_deopt_original_pcEv.exit.thread.i.i.i
  store i32 1, ptr %61, align 8
  br label %_ZN5frameC2EPlS0_Ph.exit

63:                                               ; preds = %_ZNK5frame21get_deopt_original_pcEv.exit.thread.i.i.i
  store i32 0, ptr %61, align 8
  br label %_ZN5frameC2EPlS0_Ph.exit

_ZN5frameC2EPlS0_Ph.exit:                         ; preds = %56, %62, %63
  ret void
}